target datalayout = "e-m:e-p270:32:32-p271:32:32-p272:64:64-i64:64-i128:128-f80:128-n8:16:32:64-S128"
target triple = "x86_64-pc-linux-gnu"

%struct.Query = type { i32, i32, i32, i64, i8, ptr, i32, i8, i8, i8, i8, i8, i8, i8, i8, i8, i8, i8, ptr, ptr, ptr, ptr, ptr, i32, ptr, ptr, i32, ptr, ptr, ptr, ptr, ptr, i8, ptr, ptr, ptr, ptr, ptr, ptr, ptr, i32, ptr, ptr, ptr, ptr, i32, i32 }
%struct.RangeTblEntry = type { i32, ptr, ptr, i32, i32, i8, i8, i32, i32, ptr, ptr, i8, i32, i32, ptr, ptr, ptr, ptr, ptr, i8, ptr, ptr, ptr, i32, i8, ptr, ptr, ptr, ptr, double, ptr, i8, i8, ptr }
%struct.Node = type { i32 }
%struct.flatten_rtes_walker_context = type { ptr, ptr }

; Function Attrs: nounwind uwtable
define internal zeroext i1 @flatten_rtes_walker(ptr noundef %0, ptr noundef %1) #0 {
  %3 = alloca i1, align 1
  %4 = alloca ptr, align 8
  %5 = alloca ptr, align 8
  %6 = alloca ptr, align 8
  %7 = alloca ptr, align 8
  %8 = alloca i8, align 1
  store ptr %0, ptr %4, align 8
  store ptr %1, ptr %5, align 8
  %9 = load ptr, ptr %4, align 8
  %10 = icmp eq ptr %9, null
  br i1 %10, label %11, label %12

11:                                               ; preds = %2
  store i1 false, ptr %3, align 1
  br label %69

12:                                               ; preds = %2
  %13 = load ptr, ptr %4, align 8
  %14 = getelementptr inbounds nuw %struct.Node, ptr %13, i32 0, i32 0
  %15 = load i32, ptr %14, align 4
  %16 = icmp eq i32 %15, 101
  br i1 %16, label %17, label %44

17:                                               ; preds = %12
  call void @llvm.lifetime.start.p0(i64 8, ptr %6) #8
  %18 = load ptr, ptr %4, align 8
  store ptr %18, ptr %6, align 8
  %19 = load ptr, ptr %6, align 8
  %20 = getelementptr inbounds nuw %struct.RangeTblEntry, ptr %19, i32 0, i32 3
  %21 = load i32, ptr %20, align 8
  %22 = icmp eq i32 %21, 0
  br i1 %22, label %33, label %23

23:                                               ; preds = %17
  %24 = load ptr, ptr %6, align 8
  %25 = getelementptr inbounds nuw %struct.RangeTblEntry, ptr %24, i32 0, i32 3
  %26 = load i32, ptr %25, align 8
  %27 = icmp eq i32 %26, 1
  br i1 %27, label %28, label %43

28:                                               ; preds = %23
  %29 = load ptr, ptr %6, align 8
  %30 = getelementptr inbounds nuw %struct.RangeTblEntry, ptr %29, i32 0, i32 4
  %31 = load i32, ptr %30, align 4
  %32 = icmp ne i32 %31, 0
  br i1 %32, label %33, label %43

33:                                               ; preds = %28, %17
  %34 = load ptr, ptr %5, align 8
  %35 = getelementptr inbounds nuw %struct.flatten_rtes_walker_context, ptr %34, i32 0, i32 0
  %36 = load ptr, ptr %35, align 8
  %37 = load ptr, ptr %5, align 8
  %38 = getelementptr inbounds nuw %struct.flatten_rtes_walker_context, ptr %37, i32 0, i32 1
  %39 = load ptr, ptr %38, align 8
  %40 = getelementptr inbounds nuw %struct.Query, ptr %39, i32 0, i32 20
  %41 = load ptr, ptr %40, align 8
  %42 = load ptr, ptr %6, align 8
  call void @add_rte_to_flat_rtable(ptr noundef %36, ptr noundef %41, ptr noundef %42)
  br label %43

43:                                               ; preds = %33, %28, %23
  store i1 false, ptr %3, align 1
  call void @llvm.lifetime.end.p0(i64 8, ptr %6) #8
  br label %69

44:                                               ; preds = %12
  %45 = load ptr, ptr %4, align 8
  %46 = getelementptr inbounds nuw %struct.Node, ptr %45, i32 0, i32 0
  %47 = load i32, ptr %46, align 4
  %48 = icmp eq i32 %47, 67
  br i1 %48, label %49, label %65

49:                                               ; preds = %44
  call void @llvm.lifetime.start.p0(i64 8, ptr %7) #8
  %50 = load ptr, ptr %5, align 8
  %51 = getelementptr inbounds nuw %struct.flatten_rtes_walker_context, ptr %50, i32 0, i32 1
  %52 = load ptr, ptr %51, align 8
  store ptr %52, ptr %7, align 8
  call void @llvm.lifetime.start.p0(i64 1, ptr %8) #8
  %53 = load ptr, ptr %4, align 8
  %54 = load ptr, ptr %5, align 8
  %55 = getelementptr inbounds nuw %struct.flatten_rtes_walker_context, ptr %54, i32 0, i32 1
  store ptr %53, ptr %55, align 8
  %56 = load ptr, ptr %4, align 8
  %57 = load ptr, ptr %5, align 8
  %58 = call zeroext i1 @query_tree_walker_impl(ptr noundef %56, ptr noundef @flatten_rtes_walker, ptr noundef %57, i32 noundef 16)
  %59 = zext i1 %58 to i8
  store i8 %59, ptr %8, align 1
  %60 = load ptr, ptr %7, align 8
  %61 = load ptr, ptr %5, align 8
  %62 = getelementptr inbounds nuw %struct.flatten_rtes_walker_context, ptr %61, i32 0, i32 1
  store ptr %60, ptr %62, align 8
  %63 = load i8, ptr %8, align 1, !range !7, !noundef !8
  %64 = trunc i8 %63 to i1
  store i1 %64, ptr %3, align 1
  call void @llvm.lifetime.end.p0(i64 1, ptr %8) #8
  call void @llvm.lifetime.end.p0(i64 8, ptr %7) #8
  br label %69

65:                                               ; preds = %44
  %66 = load ptr, ptr %4, align 8
  %67 = load ptr, ptr %5, align 8
  %68 = call zeroext i1 @expression_tree_walker_impl(ptr noundef %66, ptr noundef @flatten_rtes_walker, ptr noundef %67)
  store i1 %68, ptr %3, align 1
  br label %69

69:                                               ; preds = %65, %49, %43, %11
  %70 = load i1, ptr %3, align 1
  ret i1 %70
}