; Function Attrs: nounwind uwtable
define internal zeroext i1 @flatten_rtes_walker(ptr noundef %0, ptr noundef %1) #0 {
  %3 = icmp eq ptr %0, null
  br i1 %3, label %24, label %4

4:                                                ; preds = %2
  %5 = load i32, ptr %0, align 4
  switch i32 %5, label %22 [
    i32 101, label %6
    i32 67, label %18
  ]

6:                                                ; preds = %4
  %7 = getelementptr inbounds nuw i8, ptr %0, i64 24
  %8 = load i32, ptr %7, align 8
  switch i32 %8, label %24 [
    i32 0, label %12
    i32 1, label %9
  ]

9:                                                ; preds = %6
  %10 = getelementptr inbounds nuw i8, ptr %0, i64 28
  %11 = load i32, ptr %10, align 4
  %.not = icmp eq i32 %11, 0
  br i1 %.not, label %24, label %12

12:                                               ; preds = %6, %9
  %13 = load ptr, ptr %1, align 8
  %14 = getelementptr inbounds nuw i8, ptr %1, i64 8
  %15 = load ptr, ptr %14, align 8
  %16 = getelementptr inbounds nuw i8, ptr %15, i64 72
  %17 = load ptr, ptr %16, align 8
  tail call fastcc void @add_rte_to_flat_rtable(ptr noundef %13, ptr noundef %17, ptr noundef nonnull %0)
  br label %24

18:                                               ; preds = %4
  %19 = getelementptr inbounds nuw i8, ptr %1, i64 8
  %20 = load ptr, ptr %19, align 8
  store ptr %0, ptr %19, align 8
  %21 = tail call zeroext i1 @query_tree_walker_impl(ptr noundef nonnull %0, ptr noundef nonnull @flatten_rtes_walker, ptr noundef %1, i32 noundef 16) #8
  store ptr %20, ptr %19, align 8
  br label %24

22:                                               ; preds = %4
  %23 = tail call zeroext i1 @expression_tree_walker_impl(ptr noundef nonnull %0, ptr noundef nonnull @flatten_rtes_walker, ptr noundef %1) #8
  br label %24

24:                                               ; preds = %9, %12, %6, %2, %22, %18
  %.0 = phi i1 [ %21, %18 ], [ %23, %22 ], [ false, %2 ], [ false, %6 ], [ false, %12 ], [ false, %9 ]
  ret i1 %.0
}